target datalayout = "e-m:e-p270:32:32-p271:32:32-p272:64:64-i64:64-i128:128-f80:128-n8:16:32:64-S128"
target triple = "x86_64-pc-linux-gnu"

%struct.varattrib_1b = type { i8, [0 x i8] }
%struct.anon = type { i32, [0 x i8] }
%struct.varattrib_1b_e = type { i8, i8, [0 x i8] }
%struct.JsonbValue = type { i32, %union.anon }
%union.anon = type { %struct.anon.2 }
%struct.anon.2 = type { i32, ptr, i8 }
%struct.Jsonb = type { i32, %struct.JsonbContainer }
%struct.JsonbContainer = type { i32, [0 x i32] }
%struct.anon.1 = type { i32, ptr }
%struct.JsonbIterator = type { ptr, i32, i8, ptr, ptr, i32, i32, i32, i32, ptr }

; Function Attrs: nounwind uwtable
define dso_local ptr @transform_jsonb_string_values(ptr noundef %0, ptr noundef %1, ptr noundef %2) #0 {
  %4 = alloca ptr, align 8
  %5 = alloca ptr, align 8
  %6 = alloca ptr, align 8
  %7 = alloca ptr, align 8
  %8 = alloca %struct.JsonbValue, align 8
  %9 = alloca ptr, align 8
  %10 = alloca i32, align 4
  %11 = alloca ptr, align 8
  %12 = alloca ptr, align 8
  %13 = alloca i8, align 1
  store ptr %0, ptr %4, align 8
  store ptr %1, ptr %5, align 8
  store ptr %2, ptr %6, align 8
  call void @llvm.lifetime.start.p0(i64 8, ptr %7) #10
  call void @llvm.lifetime.start.p0(i64 32, ptr %8) #10
  call void @llvm.lifetime.start.p0(i64 8, ptr %9) #10
  store ptr null, ptr %9, align 8
  call void @llvm.lifetime.start.p0(i64 4, ptr %10) #10
  call void @llvm.lifetime.start.p0(i64 8, ptr %11) #10
  store ptr null, ptr %11, align 8
  call void @llvm.lifetime.start.p0(i64 8, ptr %12) #10
  call void @llvm.lifetime.start.p0(i64 1, ptr %13) #10
  store i8 0, ptr %13, align 1
  %14 = load ptr, ptr %4, align 8
  %15 = getelementptr inbounds nuw %struct.Jsonb, ptr %14, i32 0, i32 1
  %16 = call ptr @JsonbIteratorInit(ptr noundef %15)
  store ptr %16, ptr %7, align 8
  %17 = load ptr, ptr %7, align 8
  %18 = getelementptr inbounds nuw %struct.JsonbIterator, ptr %17, i32 0, i32 2
  %19 = load i8, ptr %18, align 4, !range !4, !noundef !5
  %20 = trunc i8 %19 to i1
  %21 = zext i1 %20 to i8
  store i8 %21, ptr %13, align 1
  br label %22

22:                                               ; preds = %152, %3
  %23 = call i32 @JsonbIteratorNext(ptr noundef %7, ptr noundef %8, i1 noundef zeroext false)
  store i32 %23, ptr %10, align 4
  %24 = icmp ne i32 %23, 0
  br i1 %24, label %25, label %153

25:                                               ; preds = %22
  %26 = load i32, ptr %10, align 4
  %27 = icmp eq i32 %26, 2
  br i1 %27, label %31, label %28

28:                                               ; preds = %25
  %29 = load i32, ptr %10, align 4
  %30 = icmp eq i32 %29, 3
  br i1 %30, label %31, label %137

31:                                               ; preds = %28, %25
  %32 = getelementptr inbounds nuw %struct.JsonbValue, ptr %8, i32 0, i32 0
  %33 = load i32, ptr %32, align 8
  %34 = icmp eq i32 %33, 1
  br i1 %34, label %35, label %137

35:                                               ; preds = %31
  %36 = load ptr, ptr %6, align 8
  %37 = load ptr, ptr %5, align 8
  %38 = getelementptr inbounds nuw %struct.JsonbValue, ptr %8, i32 0, i32 1
  %39 = getelementptr inbounds nuw %struct.anon.1, ptr %38, i32 0, i32 1
  %40 = load ptr, ptr %39, align 8
  %41 = getelementptr inbounds nuw %struct.JsonbValue, ptr %8, i32 0, i32 1
  %42 = getelementptr inbounds nuw %struct.anon.1, ptr %41, i32 0, i32 0
  %43 = load i32, ptr %42, align 8
  %44 = call ptr %36(ptr noundef %37, ptr noundef %40, i32 noundef %43)
  store ptr %44, ptr %12, align 8
  %45 = load ptr, ptr %12, align 8
  %46 = call ptr @pg_detoast_datum_packed(ptr noundef %45)
  store ptr %46, ptr %12, align 8
  %47 = load ptr, ptr %12, align 8
  %48 = getelementptr inbounds nuw %struct.varattrib_1b, ptr %47, i32 0, i32 0
  %49 = load i8, ptr %48, align 1
  %50 = zext i8 %49 to i32
  %51 = and i32 %50, 1
  %52 = icmp eq i32 %51, 1
  br i1 %52, label %53, label %57

53:                                               ; preds = %35
  %54 = load ptr, ptr %12, align 8
  %55 = getelementptr inbounds nuw %struct.varattrib_1b, ptr %54, i32 0, i32 1
  %56 = getelementptr inbounds [0 x i8], ptr %55, i64 0, i64 0
  br label %61

57:                                               ; preds = %35
  %58 = load ptr, ptr %12, align 8
  %59 = getelementptr inbounds nuw %struct.anon, ptr %58, i32 0, i32 1
  %60 = getelementptr inbounds [0 x i8], ptr %59, i64 0, i64 0
  br label %61

61:                                               ; preds = %57, %53
  %62 = phi ptr [ %56, %53 ], [ %60, %57 ]
  %63 = getelementptr inbounds nuw %struct.JsonbValue, ptr %8, i32 0, i32 1
  %64 = getelementptr inbounds nuw %struct.anon.1, ptr %63, i32 0, i32 1
  store ptr %62, ptr %64, align 8
  %65 = load ptr, ptr %12, align 8
  %66 = getelementptr inbounds nuw %struct.varattrib_1b, ptr %65, i32 0, i32 0
  %67 = load i8, ptr %66, align 1
  %68 = zext i8 %67 to i32
  %69 = icmp eq i32 %68, 1
  br i1 %69, label %70, label %98

70:                                               ; preds = %61
  %71 = load ptr, ptr %12, align 8
  %72 = getelementptr inbounds nuw %struct.varattrib_1b_e, ptr %71, i32 0, i32 1
  %73 = load i8, ptr %72, align 1
  %74 = zext i8 %73 to i32
  %75 = icmp eq i32 %74, 1
  br i1 %75, label %76, label %77

76:                                               ; preds = %70
  br label %94

77:                                               ; preds = %70
  %78 = load ptr, ptr %12, align 8
  %79 = getelementptr inbounds nuw %struct.varattrib_1b_e, ptr %78, i32 0, i32 1
  %80 = load i8, ptr %79, align 1
  %81 = zext i8 %80 to i32
  %82 = and i32 %81, -2
  %83 = icmp eq i32 %82, 2
  br i1 %83, label %84, label %85

84:                                               ; preds = %77
  br label %92

85:                                               ; preds = %77
  %86 = load ptr, ptr %12, align 8
  %87 = getelementptr inbounds nuw %struct.varattrib_1b_e, ptr %86, i32 0, i32 1
  %88 = load i8, ptr %87, align 1
  %89 = zext i8 %88 to i32
  %90 = icmp eq i32 %89, 18
  %91 = select i1 %90, i64 16, i64 0
  br label %92

92:                                               ; preds = %85, %84
  %93 = phi i64 [ 8, %84 ], [ %91, %85 ]
  br label %94

94:                                               ; preds = %92, %76
  %95 = phi i64 [ 8, %76 ], [ %93, %92 ]
  %96 = add i64 2, %95
  %97 = sub i64 %96, 2
  br label %124

98:                                               ; preds = %61
  %99 = load ptr, ptr %12, align 8
  %100 = getelementptr inbounds nuw %struct.varattrib_1b, ptr %99, i32 0, i32 0
  %101 = load i8, ptr %100, align 1
  %102 = zext i8 %101 to i32
  %103 = and i32 %102, 1
  %104 = icmp eq i32 %103, 1
  br i1 %104, label %105, label %114

105:                                              ; preds = %98
  %106 = load ptr, ptr %12, align 8
  %107 = getelementptr inbounds nuw %struct.varattrib_1b, ptr %106, i32 0, i32 0
  %108 = load i8, ptr %107, align 1
  %109 = zext i8 %108 to i32
  %110 = ashr i32 %109, 1
  %111 = and i32 %110, 127
  %112 = sext i32 %111 to i64
  %113 = sub i64 %112, 1
  br label %122

114:                                              ; preds = %98
  %115 = load ptr, ptr %12, align 8
  %116 = getelementptr inbounds nuw %struct.anon, ptr %115, i32 0, i32 0
  %117 = load i32, ptr %116, align 4
  %118 = lshr i32 %117, 2
  %119 = and i32 %118, 1073741823
  %120 = sub i32 %119, 4
  %121 = zext i32 %120 to i64
  br label %122

122:                                              ; preds = %114, %105
  %123 = phi i64 [ %113, %105 ], [ %121, %114 ]
  br label %124

124:                                              ; preds = %122, %94
  %125 = phi i64 [ %97, %94 ], [ %123, %122 ]
  %126 = trunc i64 %125 to i32
  %127 = getelementptr inbounds nuw %struct.JsonbValue, ptr %8, i32 0, i32 1
  %128 = getelementptr inbounds nuw %struct.anon.1, ptr %127, i32 0, i32 0
  store i32 %126, ptr %128, align 8
  %129 = load i32, ptr %10, align 4
  %130 = load i32, ptr %10, align 4
  %131 = icmp ult i32 %130, 4
  br i1 %131, label %132, label %133

132:                                              ; preds = %124
  br label %134

133:                                              ; preds = %124
  br label %134

134:                                              ; preds = %133, %132
  %135 = phi ptr [ %8, %132 ], [ null, %133 ]
  %136 = call ptr @pushJsonbValue(ptr noundef %11, i32 noundef %129, ptr noundef %135)
  store ptr %136, ptr %9, align 8
  br label %152

137:                                              ; preds = %31, %28
  %138 = load i32, ptr %10, align 4
  %139 = load i32, ptr %10, align 4
  %140 = icmp eq i32 %139, 1
  br i1 %140, label %147, label %141

141:                                              ; preds = %137
  %142 = load i32, ptr %10, align 4
  %143 = icmp eq i32 %142, 2
  br i1 %143, label %147, label %144

144:                                              ; preds = %141
  %145 = load i32, ptr %10, align 4
  %146 = icmp eq i32 %145, 3
  br i1 %146, label %147, label %148

147:                                              ; preds = %144, %141, %137
  br label %149

148:                                              ; preds = %144
  br label %149

149:                                              ; preds = %148, %147
  %150 = phi ptr [ %8, %147 ], [ null, %148 ]
  %151 = call ptr @pushJsonbValue(ptr noundef %11, i32 noundef %138, ptr noundef %150)
  store ptr %151, ptr %9, align 8
  br label %152

152:                                              ; preds = %149, %134
  br label %22, !llvm.loop !29

153:                                              ; preds = %22
  %154 = load ptr, ptr %9, align 8
  %155 = getelementptr inbounds nuw %struct.JsonbValue, ptr %154, i32 0, i32 0
  %156 = load i32, ptr %155, align 8
  %157 = icmp eq i32 %156, 16
  br i1 %157, label %158, label %165

158:                                              ; preds = %153
  %159 = load i8, ptr %13, align 1, !range !4, !noundef !5
  %160 = trunc i8 %159 to i1
  %161 = load ptr, ptr %9, align 8
  %162 = getelementptr inbounds nuw %struct.JsonbValue, ptr %161, i32 0, i32 1
  %163 = getelementptr inbounds nuw %struct.anon.2, ptr %162, i32 0, i32 2
  %164 = zext i1 %160 to i8
  store i8 %164, ptr %163, align 8
  br label %165

165:                                              ; preds = %158, %153
  %166 = load ptr, ptr %9, align 8
  %167 = call ptr @JsonbValueToJsonb(ptr noundef %166)
  call void @llvm.lifetime.end.p0(i64 1, ptr %13) #10
  call void @llvm.lifetime.end.p0(i64 8, ptr %12) #10
  call void @llvm.lifetime.end.p0(i64 8, ptr %11) #10
  call void @llvm.lifetime.end.p0(i64 4, ptr %10) #10
  call void @llvm.lifetime.end.p0(i64 8, ptr %9) #10
  call void @llvm.lifetime.end.p0(i64 32, ptr %8) #10
  call void @llvm.lifetime.end.p0(i64 8, ptr %7) #10
  ret ptr %167
}