; Function Attrs: nounwind uwtable
define dso_local ptr @transform_jsonb_string_values(ptr noundef %0, ptr noundef %1, ptr noundef readonly captures(none) %2) local_unnamed_addr #0 {
  %4 = alloca ptr, align 8
  %5 = alloca %struct.JsonbValue, align 8
  %6 = alloca ptr, align 8
  call void @llvm.lifetime.start.p0(i64 8, ptr nonnull %4) #15
  call void @llvm.lifetime.start.p0(i64 32, ptr nonnull %5) #15
  call void @llvm.lifetime.start.p0(i64 8, ptr nonnull %6) #15
  store ptr null, ptr %6, align 8
  %7 = getelementptr inbounds nuw i8, ptr %0, i64 4
  %8 = tail call ptr @JsonbIteratorInit(ptr noundef nonnull %7) #15
  store ptr %8, ptr %4, align 8
  %9 = getelementptr inbounds nuw i8, ptr %8, i64 12
  %10 = load i8, ptr %9, align 4, !range !4, !noundef !5
  %11 = call i32 @JsonbIteratorNext(ptr noundef nonnull %4, ptr noundef nonnull %5, i1 noundef zeroext false) #15
  %.not40 = icmp eq i32 %11, 0
  br i1 %.not40, label %._crit_edge, label %.lr.ph

.lr.ph:                                           ; preds = %3
  %12 = getelementptr inbounds nuw i8, ptr %5, i64 8
  %13 = getelementptr inbounds nuw i8, ptr %5, i64 16
  br label %14

14:                                               ; preds = %.lr.ph, %53
  %15 = phi i32 [ %11, %.lr.ph ], [ %55, %53 ]
  %16 = and i32 %15, -2
  %or.cond = icmp eq i32 %16, 2
  %17 = load i32, ptr %5, align 8
  %18 = icmp eq i32 %17, 1
  %or.cond4 = select i1 %or.cond, i1 %18, i1 false
  br i1 %or.cond4, label %19, label %51

19:                                               ; preds = %14
  %20 = load ptr, ptr %13, align 8
  %21 = load i32, ptr %12, align 8
  %22 = call ptr %2(ptr noundef %1, ptr noundef %20, i32 noundef %21) #15
  %23 = call ptr @pg_detoast_datum_packed(ptr noundef %22) #15
  %24 = load i8, ptr %23, align 1
  %25 = and i8 %24, 1
  %.not36 = icmp eq i8 %25, 0
  %26 = getelementptr inbounds nuw i8, ptr %23, i64 1
  %27 = getelementptr inbounds nuw i8, ptr %23, i64 4
  %28 = select i1 %.not36, ptr %27, ptr %26
  store ptr %28, ptr %13, align 8
  %29 = load i8, ptr %23, align 1
  %30 = zext i8 %29 to i32
  %31 = icmp eq i8 %29, 1
  br i1 %31, label %32, label %40

32:                                               ; preds = %19
  %33 = load i8, ptr %26, align 1
  %34 = icmp eq i8 %33, 1
  %35 = and i8 %33, -2
  %36 = icmp eq i8 %35, 2
  %or.cond39 = or i1 %34, %36
  %37 = icmp eq i8 %33, 18
  %38 = select i1 %37, i32 16, i32 0
  %39 = select i1 %or.cond39, i32 8, i32 %38
  br label %49

40:                                               ; preds = %19
  %41 = and i32 %30, 1
  %.not37 = icmp eq i32 %41, 0
  br i1 %.not37, label %45, label %42

42:                                               ; preds = %40
  %43 = lshr i32 %30, 1
  %44 = add nsw i32 %43, -1
  br label %49

45:                                               ; preds = %40
  %46 = load i32, ptr %23, align 4
  %47 = lshr i32 %46, 2
  %48 = add nsw i32 %47, -4
  br label %49

49:                                               ; preds = %42, %45, %32
  %50 = phi i32 [ %39, %32 ], [ %44, %42 ], [ %48, %45 ]
  store i32 %50, ptr %12, align 8
  br label %53

51:                                               ; preds = %14
  %or.cond8 = icmp ult i32 %15, 4
  %52 = select i1 %or.cond8, ptr %5, ptr null
  br label %53

53:                                               ; preds = %51, %49
  %.sink = phi ptr [ %52, %51 ], [ %5, %49 ]
  %54 = call ptr @pushJsonbValue(ptr noundef nonnull %6, i32 noundef %15, ptr noundef %.sink) #15
  %55 = call i32 @JsonbIteratorNext(ptr noundef nonnull %4, ptr noundef nonnull %5, i1 noundef zeroext false) #15
  %.not = icmp eq i32 %55, 0
  br i1 %.not, label %._crit_edge, label %14, !llvm.loop !34

._crit_edge:                                      ; preds = %53, %3
  %.0.lcssa = phi ptr [ null, %3 ], [ %54, %53 ]
  %56 = load i32, ptr %.0.lcssa, align 8
  %57 = icmp eq i32 %56, 16
  br i1 %57, label %58, label %60

58:                                               ; preds = %._crit_edge
  %59 = getelementptr inbounds nuw i8, ptr %.0.lcssa, i64 24
  store i8 %10, ptr %59, align 8
  br label %60

60:                                               ; preds = %58, %._crit_edge
  %61 = call ptr @JsonbValueToJsonb(ptr noundef nonnull %.0.lcssa) #15
  call void @llvm.lifetime.end.p0(i64 8, ptr nonnull %6) #15
  call void @llvm.lifetime.end.p0(i64 32, ptr nonnull %5) #15
  call void @llvm.lifetime.end.p0(i64 8, ptr nonnull %4) #15
  ret ptr %61
}